target datalayout = "e-m:e-p270:32:32-p271:32:32-p272:64:64-i64:64-i128:128-f80:128-n8:16:32:64-S128"
target triple = "x86_64-unknown-linux-gnu"

@.str.3 = private unnamed_addr constant [6 x i8] c"Flush\00", align 1
@.str.38 = private unnamed_addr constant [8 x i8] c"Unknown\00", align 1
@.str.39 = private unnamed_addr constant [16 x i8] c"LevelL0FilesNum\00", align 1
@.str.40 = private unnamed_addr constant [18 x i8] c"LevelMaxLevelSize\00", align 1
@.str.41 = private unnamed_addr constant [27 x i8] c"UniversalSizeAmplification\00", align 1
@.str.42 = private unnamed_addr constant [19 x i8] c"UniversalSizeRatio\00", align 1
@.str.43 = private unnamed_addr constant [22 x i8] c"UniversalSortedRunNum\00", align 1
@.str.44 = private unnamed_addr constant [12 x i8] c"FIFOMaxSize\00", align 1
@.str.45 = private unnamed_addr constant [19 x i8] c"FIFOReduceNumFiles\00", align 1
@.str.46 = private unnamed_addr constant [8 x i8] c"FIFOTtl\00", align 1
@.str.47 = private unnamed_addr constant [17 x i8] c"ManualCompaction\00", align 1
@.str.48 = private unnamed_addr constant [25 x i8] c"FilesMarkedForCompaction\00", align 1
@.str.49 = private unnamed_addr constant [16 x i8] c"BottommostFiles\00", align 1
@.str.50 = private unnamed_addr constant [4 x i8] c"Ttl\00", align 1
@.str.51 = private unnamed_addr constant [21 x i8] c"ExternalSstIngestion\00", align 1
@.str.52 = private unnamed_addr constant [19 x i8] c"PeriodicCompaction\00", align 1
@.str.53 = private unnamed_addr constant [18 x i8] c"ChangeTemperature\00", align 1
@.str.54 = private unnamed_addr constant [13 x i8] c"ForcedBlobGC\00", align 1
@.str.55 = private unnamed_addr constant [14 x i8] c"RoundRobinTtl\00", align 1
@.str.56 = private unnamed_addr constant [11 x i8] c"RefitLevel\00", align 1
@.str.57 = private unnamed_addr constant [8 x i8] c"Invalid\00", align 1

; Function Attrs: mustprogress nounwind uwtable
define noundef ptr @_ZN7rocksdb25GetCompactionReasonStringENS_16CompactionReasonE(i32 noundef %compaction_reason) #1 {
entry:
  %retval = alloca ptr, align 8
  %compaction_reason.addr = alloca i32, align 4
  store i32 %compaction_reason, ptr %compaction_reason.addr, align 4
  %0 = load i32, ptr %compaction_reason.addr, align 4
  switch i32 %0, label %sw.default [
    i32 0, label %sw.bb
    i32 1, label %sw.bb1
    i32 2, label %sw.bb2
    i32 3, label %sw.bb3
    i32 4, label %sw.bb4
    i32 5, label %sw.bb5
    i32 6, label %sw.bb6
    i32 7, label %sw.bb7
    i32 8, label %sw.bb8
    i32 9, label %sw.bb9
    i32 10, label %sw.bb10
    i32 11, label %sw.bb11
    i32 12, label %sw.bb12
    i32 13, label %sw.bb13
    i32 14, label %sw.bb14
    i32 15, label %sw.bb15
    i32 16, label %sw.bb16
    i32 17, label %sw.bb17
    i32 18, label %sw.bb18
    i32 19, label %sw.bb19
    i32 20, label %sw.bb20
  ]

sw.bb:                                            ; preds = %entry
  store ptr @.str.38, ptr %retval, align 8
  br label %return

sw.bb1:                                           ; preds = %entry
  store ptr @.str.39, ptr %retval, align 8
  br label %return

sw.bb2:                                           ; preds = %entry
  store ptr @.str.40, ptr %retval, align 8
  br label %return

sw.bb3:                                           ; preds = %entry
  store ptr @.str.41, ptr %retval, align 8
  br label %return

sw.bb4:                                           ; preds = %entry
  store ptr @.str.42, ptr %retval, align 8
  br label %return

sw.bb5:                                           ; preds = %entry
  store ptr @.str.43, ptr %retval, align 8
  br label %return

sw.bb6:                                           ; preds = %entry
  store ptr @.str.44, ptr %retval, align 8
  br label %return

sw.bb7:                                           ; preds = %entry
  store ptr @.str.45, ptr %retval, align 8
  br label %return

sw.bb8:                                           ; preds = %entry
  store ptr @.str.46, ptr %retval, align 8
  br label %return

sw.bb9:                                           ; preds = %entry
  store ptr @.str.47, ptr %retval, align 8
  br label %return

sw.bb10:                                          ; preds = %entry
  store ptr @.str.48, ptr %retval, align 8
  br label %return

sw.bb11:                                          ; preds = %entry
  store ptr @.str.49, ptr %retval, align 8
  br label %return

sw.bb12:                                          ; preds = %entry
  store ptr @.str.50, ptr %retval, align 8
  br label %return

sw.bb13:                                          ; preds = %entry
  store ptr @.str.3, ptr %retval, align 8
  br label %return

sw.bb14:                                          ; preds = %entry
  store ptr @.str.51, ptr %retval, align 8
  br label %return

sw.bb15:                                          ; preds = %entry
  store ptr @.str.52, ptr %retval, align 8
  br label %return

sw.bb16:                                          ; preds = %entry
  store ptr @.str.53, ptr %retval, align 8
  br label %return

sw.bb17:                                          ; preds = %entry
  store ptr @.str.54, ptr %retval, align 8
  br label %return

sw.bb18:                                          ; preds = %entry
  store ptr @.str.55, ptr %retval, align 8
  br label %return

sw.bb19:                                          ; preds = %entry
  store ptr @.str.56, ptr %retval, align 8
  br label %return

sw.bb20:                                          ; preds = %entry
  br label %sw.default

sw.default:                                       ; preds = %sw.bb20, %entry
  store ptr @.str.57, ptr %retval, align 8
  br label %return

return:                                           ; preds = %sw.default, %sw.bb19, %sw.bb18, %sw.bb17, %sw.bb16, %sw.bb15, %sw.bb14, %sw.bb13, %sw.bb12, %sw.bb11, %sw.bb10, %sw.bb9, %sw.bb8, %sw.bb7, %sw.bb6, %sw.bb5, %sw.bb4, %sw.bb3, %sw.bb2, %sw.bb1, %sw.bb
  %1 = load ptr, ptr %retval, align 8
  ret ptr %1
}