; Function Attrs: mustprogress nofree norecurse nosync nounwind willreturn memory(none) uwtable
define noundef nonnull ptr @_ZN7rocksdb25GetCompactionReasonStringENS_16CompactionReasonE(i32 noundef %compaction_reason) local_unnamed_addr #4 {
entry:
  %0 = icmp ult i32 %compaction_reason, 20
  br i1 %0, label %switch.lookup, label %return

switch.lookup:                                    ; preds = %entry
  %1 = zext nneg i32 %compaction_reason to i64
  %switch.gep = getelementptr inbounds [20 x ptr], ptr @switch.table._ZN7rocksdb13CompactionJob13LogCompactionEv, i64 0, i64 %1
  %switch.load = load ptr, ptr %switch.gep, align 8
  br label %return

return:                                           ; preds = %entry, %switch.lookup
  %retval.0 = phi ptr [ %switch.load, %switch.lookup ], [ @.str.57, %entry ]
  ret ptr %retval.0
}